Certificate:
    Data:
        Version: 3 (0x2)
        Serial Number: 2 (0x2)
    Signature Algorithm: ecdsa-with-SHA512
        Issuer: CN=Easy-RSA CA
        Validity
            Not Before: Apr 26 13:06:40 2024 GMT
            Not After : Apr 24 13:06:40 2034 GMT
        Subject: CN=client1
        Subject Public Key Info:
            Public Key Algorithm: id-ecPublicKey
                Public-Key: (384 bit)
                pub: 
                    04:4d:c3:f5:36:27:ee:c6:c4:c8:ac:ab:86:6c:d6:
                    1d:de:f2:b1:e8:05:51:90:ea:6f:04:2d:86:13:a7:
                    27:95:3d:f7:d3:6c:ae:40:17:cc:bb:93:48:6c:ce:
                    7a:90:9b:7c:14:50:fa:61:94:3b:93:2e:c7:90:71:
                    c9:77:35:8f:76:d8:06:6d:c4:c1:1c:90:9e:29:13:
                    15:96:09:ef:f5:5d:b2:85:62:ea:a0:9f:46:2b:7a:
                    85:4d:73:a7:69:8c:72
                ASN1 OID: secp384r1
                NIST CURVE: P-384
        X509v3 extensions:
            X509v3 Basic Constraints: 
                CA:FALSE
            X509v3 Subject Key Identifier: 
                12:3E:8A:6D:7C:16:58:44:CB:89:D6:23:D6:A9:1D:22:41:B7:9F:9A
            X509v3 Authority Key Identifier: 
                keyid:D2:09:54:9D:69:26:77:FD:CC:E7:F5:1F:9C:B4:E3:2C:2E:82:F9:67
                DirName:/CN=Easy-RSA CA
                serial:CD:59:F6:14:CB:62:EF:27

            X509v3 Extended Key Usage: 
                TLS Web Client Authentication
            X509v3 Key Usage: 
                Digital Signature
    Signature Algorithm: ecdsa-with-SHA512
         30:65:02:30:30:16:27:a8:b7:12:16:c1:e9:f5:cb:23:dc:d3:
         f3:95:e8:83:47:52:d7:bd:27:cb:b8:25:7d:48:0c:02:a1:00:
         8c:8f:f9:d8:76:01:a0:72:f8:55:a3:30:f8:92:0a:34:02:31:
         00:da:04:51:c5:fb:90:9c:6a:53:c9:34:fd:51:c2:28:11:3e:
         d9:0c:b9:4c:6e:db:3c:45:f3:ca:41:62:69:09:32:9f:d2:a8:
         ca:1a:0c:1c:06:86:29:68:c3:5b:7d:50:54
-----BEGIN CERTIFICATE-----
MIIB7DCCAXKgAwIBAgIBAjAKBggqhkjOPQQDBDAWMRQwEgYDVQQDDAtFYXN5LVJT
QSBDQTAeFw0yNDA0MjYxMzA2NDBaFw0zNDA0MjQxMzA2NDBaMBIxEDAOBgNVBAMM
B2NsaWVudDEwdjAQBgcqhkjOPQIBBgUrgQQAIgNiAARNw/U2J+7GxMisq4Zs1h3e
8rHoBVGQ6m8ELYYTpyeVPffTbK5AF8y7k0hsznqQm3wUUPphlDuTLseQccl3NY92
2AZtxMEckJ4pExWWCe/1XbKFYuqgn0YreoVNc6dpjHKjgZcwgZQwCQYDVR0TBAIw
ADAdBgNVHQ4EFgQUEj6KbXwWWETLidYj1qkdIkG3n5owRgYDVR0jBD8wPYAU0glU
nWkmd/3M5/UfnLTjLC6C+WehGqQYMBYxFDASBgNVBAMMC0Vhc3ktUlNBIENBggkA
zVn2FMti7ycwEwYDVR0lBAwwCgYIKwYBBQUHAwIwCwYDVR0PBAQDAgeAMAoGCCqG
SM49BAMEA2gAMGUCMDAWJ6i3EhbB6fXLI9zT85Xog0dS170ny7glfUgMAqEAjI/5
2HYBoHL4VaMw+JIKNAIxANoEUcX7kJxqU8k0/VHCKBE+2Qy5TG7bPEXzykFiaQky
n9KoyhoMHAaGKWjDW31QVA==
-----END CERTIFICATE-----
